target datalayout = "e-m:e-p270:32:32-p271:32:32-p272:64:64-i64:64-i128:128-f80:128-n8:16:32:64-S128"
target triple = "x86_64-pc-linux-gnu"

%struct.redisServer = type { i32, i64, ptr, ptr, ptr, i32, i32, i32, i32, i32, ptr, ptr, ptr, ptr, ptr, i32, i32, i32, i32, i64, i32, i32, i32, i32, ptr, i32, i32, [41 x i8], i32, i64, i32, i32, i32, ptr, ptr, i32, i32, i64, ptr, ptr, ptr, ptr, [2 x i32], i32, i32, i32, i32, i32, i32, [16 x ptr], i32, ptr, ptr, i32, [8 x %struct.connListener], i32, %struct.connListener, ptr, ptr, ptr, ptr, ptr, ptr, ptr, ptr, ptr, ptr, i32, ptr, i32, ptr, [3 x %struct.pause_event], [256 x i8], ptr, i64, i32, i32, [128 x i32], i32, i32, i64, i32, i32, i32, i32, i32, i64, i64, i64, i64, i64, i64, i64, i64, i64, i64, double, i64, i64, i64, i64, i64, i64, i64, i64, i64, i64, i64, i64, i64, i64, i64, i64, i64, i64, i64, i64, i64, double, i64, i64, i64, i64, i64, ptr, i64, i64, i64, %struct.malloc_stats, i64, i64, i64, i64, i64, i64, i64, i64, i64, i64, i64, i64, double, [4 x i64], i64, i64, i64, i64, [128 x i64], [128 x i64], i64, i64, [7 x %struct.anon.2], i64, i64, i64, i64, i64, i64, [4 x %struct.durationStats], i32, i32, i32, i32, i32, i32, i32, i32, i32, i32, i32, i32, i64, i32, i32, i32, i32, i64, i64, i32, i32, i32, i32, i32, ptr, [3 x %struct.clientBufferLimitsConfig], i32, i32, i32, ptr, i32, i32, i32, i32, i32, i32, ptr, ptr, i32, i32, i64, i64, i64, i64, i64, i32, i32, ptr, i32, i32, i64, i64, i64, i64, i64, i32, i32, i64, i32, i32, i32, i32, i32, i32, i32, i32, ptr, i32, i64, i64, i64, i64, i32, ptr, i32, ptr, i32, i32, i32, i64, i64, i64, i64, i32, i32, i32, i32, i32, i32, ptr, i32, i32, ptr, i32, i32, i32, [2 x i32], i32, %struct.redisOpArray, i32, ptr, i32, ptr, i32, i32, i32, i32, i32, i32, i32, [41 x i8], [41 x i8], i64, i64, i64, i64, i32, i32, ptr, i64, i64, %struct.replDataBuf, i64, i64, i32, i32, i32, i32, i32, i32, i32, i32, i32, i64, ptr, i64, ptr, ptr, ptr, i32, i32, ptr, ptr, i32, i32, i32, i64, i64, i64, i64, ptr, ptr, i32, ptr, i64, i32, i32, i32, i64, i32, i32, i32, i32, ptr, i32, i32, [41 x i8], i64, i32, ptr, i32, i32, i64, i64, i32, i32, i32, i32, i32, i64, [3 x i32], i32, i32, i32, [10 x i32], ptr, ptr, i32, i64, ptr, ptr, i32, i32, i32, i32, i64, i64, i64, i64, i64, i64, i64, i64, i64, i64, i32, i32, i64, i64, i32, i64, i64, i64, i64, i64, ptr, ptr, i32, ptr, i32, i32, i32, i32, i64, i64, ptr, ptr, i32, i32, i32, i32, i32, ptr, ptr, ptr, i32, i32, i32, i32, i32, i32, i32, i64, i32, i32, i64, i32, i32, i32, i32, i32, i32, i32, i64, ptr, ptr, i64, ptr, i32, %struct.aclInfo, i32, i64, i32, i32, i32, %struct.redisTLSContextConfig, ptr, ptr, ptr, ptr, ptr, i64, i32, ptr, i32, i32, i32, i64, i32, ptr }
%struct.connListener = type { [16 x i32], i32, ptr, i32, i32, ptr, ptr }
%struct.pause_event = type { i32, i64 }
%struct.malloc_stats = type { i64, i64, i64, i64, i64, i64, i64, i64, i64, i64, i64 }
%struct.anon.2 = type { i64, i64, [16 x i64], i32 }
%struct.durationStats = type { i64, i64, i64 }
%struct.clientBufferLimitsConfig = type { i64, i64, i64 }
%struct.redisOpArray = type { ptr, i32, i32 }
%struct.replDataBuf = type { ptr, i64, i64, i64, i64 }
%struct.aclInfo = type { i64, i64, i64, i64 }
%struct.redisTLSContextConfig = type { ptr, ptr, ptr, ptr, ptr, ptr, ptr, ptr, ptr, ptr, ptr, ptr, i32, i32, i32, i32 }
%struct.RedisModuleCtx = type { ptr, ptr, ptr, ptr, ptr, i32, i32, i32, ptr, i32, ptr, ptr, ptr, ptr, i64, ptr }
%struct.client = type { i64, i64, ptr, i8, i8, i8, i8, i32, ptr, ptr, ptr, ptr, ptr, i64, i64, i32, ptr, i32, i32, ptr, i64, ptr, ptr, ptr, ptr, ptr, i32, i32, i64, ptr, i64, ptr, i64, i64, i64, i32, ptr, i64, i64, i32, i32, i32, i32, i64, i64, ptr, i64, i64, i64, i64, i64, i64, i64, i64, [41 x i8], i32, ptr, i32, i32, i64, %struct.multiState, %struct.blockingState, i64, ptr, ptr, ptr, ptr, ptr, ptr, ptr, ptr, ptr, ptr, ptr, ptr, ptr, ptr, i64, ptr, i64, i32, ptr, ptr, ptr, i64, %struct.listNode, i64, i64, i32, i64, ptr }
%struct.multiState = type { ptr, i32, i32, i32, i64, i32 }
%struct.blockingState = type { i32, i64, i32, ptr, i32, i32, i64, ptr, ptr, i64 }
%struct.listNode = type { ptr, ptr, ptr }
%struct.RedisModule = type { ptr, ptr, i32, i32, ptr, ptr, ptr, ptr, ptr, i32, i32, i32, i32, i32, ptr, ptr, ptr, ptr, ptr, i32, i32, i64 }
%struct.list = type { ptr, ptr, ptr, ptr, ptr, i64 }
%struct.listIter = type { ptr, i32 }
%struct.RedisModuleKeyspaceSubscriber = type { ptr, ptr, i32, i32 }

@moduleTempClientCount = internal global i64 0, align 8
@moduleTempClients = internal global ptr null, align 8
@moduleTempClientMinCount = internal global i64 0, align 8
@server = external global %struct.redisServer, align 8
@getMonotonicUs = external global ptr, align 8
@moduleKeyspaceSubscribers = internal global ptr null, align 8

; Function Attrs: nounwind uwtable
define dso_local ptr @moduleAllocTempClient() #0 {
  %1 = alloca ptr, align 8
  call void @llvm.lifetime.start.p0(i64 8, ptr %1) #15
  store ptr null, ptr %1, align 8, !tbaa !31
  %2 = load i64, ptr @moduleTempClientCount, align 8, !tbaa !5
  %3 = icmp ugt i64 %2, 0
  br i1 %3, label %4, label %16

4:                                                ; preds = %0
  %5 = load ptr, ptr @moduleTempClients, align 8, !tbaa !32
  %6 = load i64, ptr @moduleTempClientCount, align 8, !tbaa !5
  %7 = add i64 %6, -1
  store i64 %7, ptr @moduleTempClientCount, align 8, !tbaa !5
  %8 = getelementptr inbounds nuw ptr, ptr %5, i64 %7
  %9 = load ptr, ptr %8, align 8, !tbaa !31
  store ptr %9, ptr %1, align 8, !tbaa !31
  %10 = load i64, ptr @moduleTempClientCount, align 8, !tbaa !5
  %11 = load i64, ptr @moduleTempClientMinCount, align 8, !tbaa !5
  %12 = icmp ult i64 %10, %11
  br i1 %12, label %13, label %15

13:                                               ; preds = %4
  %14 = load i64, ptr @moduleTempClientCount, align 8, !tbaa !5
  store i64 %14, ptr @moduleTempClientMinCount, align 8, !tbaa !5
  br label %15

15:                                               ; preds = %13, %4
  br label %24

16:                                               ; preds = %0
  %17 = call ptr @createClient(ptr noundef null)
  store ptr %17, ptr %1, align 8, !tbaa !31
  %18 = load ptr, ptr %1, align 8, !tbaa !31
  %19 = getelementptr inbounds nuw %struct.client, ptr %18, i32 0, i32 1
  %20 = load i64, ptr %19, align 8, !tbaa !34
  %21 = or i64 %20, 134217728
  store i64 %21, ptr %19, align 8, !tbaa !34
  %22 = load ptr, ptr %1, align 8, !tbaa !31
  %23 = getelementptr inbounds nuw %struct.client, ptr %22, i32 0, i32 25
  store ptr null, ptr %23, align 8, !tbaa !49
  br label %24

24:                                               ; preds = %16, %15
  %25 = load ptr, ptr %1, align 8, !tbaa !31
  call void @llvm.lifetime.end.p0(i64 8, ptr %1) #15
  ret ptr %25
}

; Function Attrs: nounwind uwtable
define dso_local void @moduleCreateContext(ptr noundef %0, ptr noundef %1, i32 noundef %2) #0 {
  %4 = alloca ptr, align 8
  %5 = alloca ptr, align 8
  %6 = alloca i32, align 4
  store ptr %0, ptr %4, align 8, !tbaa !13
  store ptr %1, ptr %5, align 8, !tbaa !115
  store i32 %2, ptr %6, align 4, !tbaa !29
  %7 = load ptr, ptr %4, align 8, !tbaa !13
  call void @llvm.memset.p0.i64(ptr align 8 %7, i8 0, i64 120, i1 false)
  %8 = load ptr, ptr %4, align 8, !tbaa !13
  %9 = getelementptr inbounds nuw %struct.RedisModuleCtx, ptr %8, i32 0, i32 0
  store ptr @RM_GetApi, ptr %9, align 8, !tbaa !124
  %10 = load ptr, ptr %5, align 8, !tbaa !115
  %11 = load ptr, ptr %4, align 8, !tbaa !13
  %12 = getelementptr inbounds nuw %struct.RedisModuleCtx, ptr %11, i32 0, i32 1
  store ptr %10, ptr %12, align 8, !tbaa !102
  %13 = load i32, ptr %6, align 4, !tbaa !29
  %14 = load ptr, ptr %4, align 8, !tbaa !13
  %15 = getelementptr inbounds nuw %struct.RedisModuleCtx, ptr %14, i32 0, i32 7
  store i32 %13, ptr %15, align 8, !tbaa !98
  %16 = load i32, ptr %6, align 4, !tbaa !29
  %17 = and i32 %16, 64
  %18 = icmp ne i32 %17, 0
  br i1 %18, label %19, label %23

19:                                               ; preds = %3
  %20 = call ptr @moduleAllocTempClient()
  %21 = load ptr, ptr %4, align 8, !tbaa !13
  %22 = getelementptr inbounds nuw %struct.RedisModuleCtx, ptr %21, i32 0, i32 2
  store ptr %20, ptr %22, align 8, !tbaa !106
  br label %32

23:                                               ; preds = %3
  %24 = load i32, ptr %6, align 4, !tbaa !29
  %25 = and i32 %24, 128
  %26 = icmp ne i32 %25, 0
  br i1 %26, label %27, label %31

27:                                               ; preds = %23
  %28 = call ptr @createClient(ptr noundef null)
  %29 = load ptr, ptr %4, align 8, !tbaa !13
  %30 = getelementptr inbounds nuw %struct.RedisModuleCtx, ptr %29, i32 0, i32 2
  store ptr %28, ptr %30, align 8, !tbaa !106
  br label %31

31:                                               ; preds = %27, %23
  br label %32

32:                                               ; preds = %31, %19
  %33 = load volatile i32, ptr getelementptr inbounds nuw (%struct.redisServer, ptr @server, i32 0, i32 84), align 4, !tbaa !125
  %34 = icmp ne i32 %33, 0
  br i1 %34, label %35, label %44

35:                                               ; preds = %32
  %36 = load ptr, ptr @getMonotonicUs, align 8, !tbaa !9
  %37 = call i64 %36()
  %38 = load i32, ptr getelementptr inbounds nuw (%struct.redisServer, ptr @server, i32 0, i32 8), align 4, !tbaa !126
  %39 = sdiv i32 1000000, %38
  %40 = sext i32 %39 to i64
  %41 = add i64 %37, %40
  %42 = load ptr, ptr %4, align 8, !tbaa !13
  %43 = getelementptr inbounds nuw %struct.RedisModuleCtx, ptr %42, i32 0, i32 14
  store i64 %41, ptr %43, align 8, !tbaa !127
  br label %52

44:                                               ; preds = %32
  %45 = load ptr, ptr @getMonotonicUs, align 8, !tbaa !9
  %46 = call i64 %45()
  %47 = load i64, ptr getelementptr inbounds nuw (%struct.redisServer, ptr @server, i32 0, i32 404), align 8, !tbaa !128
  %48 = mul nsw i64 %47, 1000
  %49 = add i64 %46, %48
  %50 = load ptr, ptr %4, align 8, !tbaa !13
  %51 = getelementptr inbounds nuw %struct.RedisModuleCtx, ptr %50, i32 0, i32 14
  store i64 %49, ptr %51, align 8, !tbaa !127
  br label %52

52:                                               ; preds = %44, %35
  %53 = load i32, ptr %6, align 4, !tbaa !29
  %54 = and i32 %53, 528
  %55 = icmp ne i32 %54, 0
  br i1 %55, label %57, label %56

56:                                               ; preds = %52
  call void @enterExecutionUnit(i32 noundef 1, i64 noundef 0)
  br label %57

57:                                               ; preds = %56, %52
  ret void
}

; Function Attrs: nounwind uwtable
define dso_local void @moduleNotifyKeyspaceEvent(i32 noundef %0, ptr noundef %1, ptr noundef %2, i32 noundef %3) #0 {
  %5 = alloca i32, align 4
  %6 = alloca ptr, align 8
  %7 = alloca ptr, align 8
  %8 = alloca i32, align 4
  %9 = alloca %struct.listIter, align 8
  %10 = alloca ptr, align 8
  %11 = alloca ptr, align 8
  %12 = alloca %struct.RedisModuleCtx, align 8
  %13 = alloca i32, align 4
  store i32 %0, ptr %5, align 4, !tbaa !29
  store ptr %1, ptr %6, align 8, !tbaa !11
  store ptr %2, ptr %7, align 8, !tbaa !69
  store i32 %3, ptr %8, align 4, !tbaa !29
  %14 = load ptr, ptr @moduleKeyspaceSubscribers, align 8, !tbaa !327
  %15 = getelementptr inbounds nuw %struct.list, ptr %14, i32 0, i32 5
  %16 = load i64, ptr %15, align 8, !tbaa !130
  %17 = icmp eq i64 %16, 0
  br i1 %17, label %18, label %19

18:                                               ; preds = %4
  br label %78

19:                                               ; preds = %4
  call void @enterExecutionUnit(i32 noundef 0, i64 noundef 0)
  call void @llvm.lifetime.start.p0(i64 16, ptr %9) #15
  call void @llvm.lifetime.start.p0(i64 8, ptr %10) #15
  %20 = load ptr, ptr @moduleKeyspaceSubscribers, align 8, !tbaa !327
  call void @listRewind(ptr noundef %20, ptr noundef %9)
  %21 = load i32, ptr %5, align 4, !tbaa !29
  %22 = and i32 %21, -4
  store i32 %22, ptr %5, align 4, !tbaa !29
  br label %23

23:                                               ; preds = %76, %19
  %24 = call ptr @listNext(ptr noundef %9)
  store ptr %24, ptr %10, align 8, !tbaa !448
  %25 = icmp ne ptr %24, null
  br i1 %25, label %26, label %77

26:                                               ; preds = %23
  call void @llvm.lifetime.start.p0(i64 8, ptr %11) #15
  %27 = load ptr, ptr %10, align 8, !tbaa !448
  %28 = getelementptr inbounds nuw %struct.listNode, ptr %27, i32 0, i32 2
  %29 = load ptr, ptr %28, align 8, !tbaa !133
  store ptr %29, ptr %11, align 8, !tbaa !577
  %30 = load ptr, ptr %11, align 8, !tbaa !577
  %31 = getelementptr inbounds nuw %struct.RedisModuleKeyspaceSubscriber, ptr %30, i32 0, i32 2
  %32 = load i32, ptr %31, align 8, !tbaa !581
  %33 = load i32, ptr %5, align 4, !tbaa !29
  %34 = and i32 %32, %33
  %35 = icmp ne i32 %34, 0
  br i1 %35, label %36, label %76

36:                                               ; preds = %26
  %37 = load ptr, ptr %11, align 8, !tbaa !577
  %38 = getelementptr inbounds nuw %struct.RedisModuleKeyspaceSubscriber, ptr %37, i32 0, i32 3
  %39 = load i32, ptr %38, align 4, !tbaa !583
  %40 = icmp eq i32 %39, 0
  br i1 %40, label %49, label %41

41:                                               ; preds = %36
  %42 = load ptr, ptr %11, align 8, !tbaa !577
  %43 = getelementptr inbounds nuw %struct.RedisModuleKeyspaceSubscriber, ptr %42, i32 0, i32 0
  %44 = load ptr, ptr %43, align 8, !tbaa !579
  %45 = getelementptr inbounds nuw %struct.RedisModule, ptr %44, i32 0, i32 12
  %46 = load i32, ptr %45, align 4, !tbaa !275
  %47 = and i32 %46, 8
  %48 = icmp ne i32 %47, 0
  br i1 %48, label %49, label %76

49:                                               ; preds = %41, %36
  call void @llvm.lifetime.start.p0(i64 120, ptr %12) #15
  %50 = load ptr, ptr %11, align 8, !tbaa !577
  %51 = getelementptr inbounds nuw %struct.RedisModuleKeyspaceSubscriber, ptr %50, i32 0, i32 0
  %52 = load ptr, ptr %51, align 8, !tbaa !579
  call void @moduleCreateContext(ptr noundef %12, ptr noundef %52, i32 noundef 64)
  %53 = getelementptr inbounds nuw %struct.RedisModuleCtx, ptr %12, i32 0, i32 2
  %54 = load ptr, ptr %53, align 8, !tbaa !106
  %55 = load i32, ptr %8, align 4, !tbaa !29
  %56 = call i32 @selectDb(ptr noundef %54, i32 noundef %55)
  call void @llvm.lifetime.start.p0(i64 4, ptr %13) #15
  %57 = load ptr, ptr %11, align 8, !tbaa !577
  %58 = getelementptr inbounds nuw %struct.RedisModuleKeyspaceSubscriber, ptr %57, i32 0, i32 3
  %59 = load i32, ptr %58, align 4, !tbaa !583
  store i32 %59, ptr %13, align 4, !tbaa !29
  %60 = load ptr, ptr %11, align 8, !tbaa !577
  %61 = getelementptr inbounds nuw %struct.RedisModuleKeyspaceSubscriber, ptr %60, i32 0, i32 3
  store i32 1, ptr %61, align 4, !tbaa !583
  %62 = load i32, ptr getelementptr inbounds nuw (%struct.redisServer, ptr @server, i32 0, i32 165), align 8, !tbaa !594
  %63 = add nsw i32 %62, 1
  store i32 %63, ptr getelementptr inbounds nuw (%struct.redisServer, ptr @server, i32 0, i32 165), align 8, !tbaa !594
  %64 = load ptr, ptr %11, align 8, !tbaa !577
  %65 = getelementptr inbounds nuw %struct.RedisModuleKeyspaceSubscriber, ptr %64, i32 0, i32 1
  %66 = load ptr, ptr %65, align 8, !tbaa !582
  %67 = load i32, ptr %5, align 4, !tbaa !29
  %68 = load ptr, ptr %6, align 8, !tbaa !11
  %69 = load ptr, ptr %7, align 8, !tbaa !69
  %70 = call i32 %66(ptr noundef %12, i32 noundef %67, ptr noundef %68, ptr noundef %69)
  %71 = load i32, ptr getelementptr inbounds nuw (%struct.redisServer, ptr @server, i32 0, i32 165), align 8, !tbaa !594
  %72 = add nsw i32 %71, -1
  store i32 %72, ptr getelementptr inbounds nuw (%struct.redisServer, ptr @server, i32 0, i32 165), align 8, !tbaa !594
  %73 = load i32, ptr %13, align 4, !tbaa !29
  %74 = load ptr, ptr %11, align 8, !tbaa !577
  %75 = getelementptr inbounds nuw %struct.RedisModuleKeyspaceSubscriber, ptr %74, i32 0, i32 3
  store i32 %73, ptr %75, align 4, !tbaa !583
  call void @moduleFreeContext(ptr noundef %12)
  call void @llvm.lifetime.end.p0(i64 4, ptr %13) #15
  call void @llvm.lifetime.end.p0(i64 120, ptr %12) #15
  br label %76

76:                                               ; preds = %49, %41, %26
  call void @llvm.lifetime.end.p0(i64 8, ptr %11) #15
  br label %23, !llvm.loop !595

77:                                               ; preds = %23
  call void @exitExecutionUnit()
  call void @llvm.lifetime.end.p0(i64 8, ptr %10) #15
  call void @llvm.lifetime.end.p0(i64 16, ptr %9) #15
  br label %78

78:                                               ; preds = %77, %18
  ret void
}