; Function Attrs: nounwind uwtable
define dso_local void @moduleNotifyKeyspaceEvent(i32 noundef %0, ptr noundef %1, ptr noundef %2, i32 noundef %3) local_unnamed_addr #0 {
  %5 = alloca %struct.listIter, align 8
  %6 = alloca %struct.RedisModuleCtx, align 8
  %7 = load ptr, ptr @moduleKeyspaceSubscribers, align 8, !tbaa !369
  %8 = getelementptr inbounds nuw i8, ptr %7, i64 40
  %9 = load i64, ptr %8, align 8, !tbaa !121
  %10 = icmp eq i64 %9, 0
  br i1 %10, label %74, label %11

11:                                               ; preds = %4
  tail call void @enterExecutionUnit(i32 noundef 0, i64 noundef 0) #35
  call void @llvm.lifetime.start.p0(i64 16, ptr nonnull %5) #35
  %12 = load ptr, ptr @moduleKeyspaceSubscribers, align 8, !tbaa !369
  call void @listRewind(ptr noundef %12, ptr noundef nonnull %5) #35
  %13 = and i32 %0, -4
  %14 = call ptr @listNext(ptr noundef nonnull %5) #35
  %.not17 = icmp eq ptr %14, null
  br i1 %.not17, label %._crit_edge, label %.lr.ph

.lr.ph:                                           ; preds = %11
  %15 = getelementptr inbounds nuw i8, ptr %6, i64 16
  %16 = getelementptr inbounds nuw i8, ptr %6, i64 8
  %17 = getelementptr inbounds nuw i8, ptr %6, i64 48
  %18 = getelementptr inbounds nuw i8, ptr %6, i64 104
  br label %19

19:                                               ; preds = %.lr.ph, %72
  %20 = phi ptr [ %14, %.lr.ph ], [ %73, %72 ]
  %21 = getelementptr inbounds nuw i8, ptr %20, i64 16
  %22 = load ptr, ptr %21, align 8, !tbaa !124
  %23 = getelementptr inbounds nuw i8, ptr %22, i64 16
  %24 = load i32, ptr %23, align 8, !tbaa !493
  %25 = and i32 %24, %13
  %.not15 = icmp eq i32 %25, 0
  br i1 %.not15, label %72, label %26

26:                                               ; preds = %19
  %27 = getelementptr inbounds nuw i8, ptr %22, i64 20
  %28 = load i32, ptr %27, align 4, !tbaa !495
  %29 = icmp eq i32 %28, 0
  %.pre = load ptr, ptr %22, align 8, !tbaa !491
  br i1 %29, label %34, label %30

30:                                               ; preds = %26
  %31 = getelementptr inbounds nuw i8, ptr %.pre, i64 76
  %32 = load i32, ptr %31, align 4, !tbaa !260
  %33 = and i32 %32, 8
  %.not16 = icmp eq i32 %33, 0
  br i1 %.not16, label %72, label %34

34:                                               ; preds = %30, %26
  call void @llvm.lifetime.start.p0(i64 120, ptr nonnull %6) #35
  call void @llvm.memset.p0.i64(ptr noundef nonnull align 8 dereferenceable(120) %15, i8 0, i64 104, i1 false)
  store ptr @RM_GetApi, ptr %6, align 8, !tbaa !112
  store ptr %.pre, ptr %16, align 8, !tbaa !91
  store i32 64, ptr %17, align 8, !tbaa !87
  %35 = load i64, ptr @moduleTempClientCount, align 8, !tbaa !24
  %.not.i.i = icmp eq i64 %35, 0
  br i1 %.not.i.i, label %44, label %36

36:                                               ; preds = %34
  %37 = load ptr, ptr @moduleTempClients, align 8, !tbaa !26
  %38 = add i64 %35, -1
  store i64 %38, ptr @moduleTempClientCount, align 8, !tbaa !24
  %39 = getelementptr inbounds nuw ptr, ptr %37, i64 %38
  %40 = load ptr, ptr %39, align 8, !tbaa !28
  %41 = load i64, ptr @moduleTempClientMinCount, align 8, !tbaa !24
  %42 = icmp ult i64 %38, %41
  br i1 %42, label %43, label %.sink.split.i

43:                                               ; preds = %36
  store i64 %38, ptr @moduleTempClientMinCount, align 8, !tbaa !24
  br label %.sink.split.i

44:                                               ; preds = %34
  %45 = call ptr @createClient(ptr noundef null) #35
  %46 = getelementptr inbounds nuw i8, ptr %45, i64 8
  %47 = load i64, ptr %46, align 8, !tbaa !29
  %48 = or i64 %47, 134217728
  store i64 %48, ptr %46, align 8, !tbaa !29
  %49 = getelementptr inbounds nuw i8, ptr %45, i64 160
  store ptr null, ptr %49, align 8, !tbaa !45
  br label %.sink.split.i

.sink.split.i:                                    ; preds = %44, %43, %36
  %.sink15.i = phi ptr [ %40, %43 ], [ %40, %36 ], [ %45, %44 ]
  store ptr %.sink15.i, ptr %15, align 8, !tbaa !95
  %50 = load volatile i32, ptr getelementptr inbounds nuw (i8, ptr @server, i64 2412), align 4, !tbaa !113
  %.not13.i = icmp eq i32 %50, 0
  %51 = load ptr, ptr @getMonotonicUs, align 8, !tbaa !83
  %52 = call i64 %51() #35
  br i1 %.not13.i, label %58, label %53

53:                                               ; preds = %.sink.split.i
  %54 = load i32, ptr getelementptr inbounds nuw (i8, ptr @server, i64 52), align 4, !tbaa !114
  %55 = sdiv i32 1000000, %54
  %56 = sext i32 %55 to i64
  %57 = add i64 %52, %56
  br label %moduleCreateContext.exit

58:                                               ; preds = %.sink.split.i
  %59 = load i64, ptr getelementptr inbounds nuw (i8, ptr @server, i64 8024), align 8, !tbaa !115
  %60 = mul nsw i64 %59, 1000
  %61 = add i64 %60, %52
  br label %moduleCreateContext.exit

moduleCreateContext.exit:                         ; preds = %53, %58
  %.sink.i = phi i64 [ %61, %58 ], [ %57, %53 ]
  store i64 %.sink.i, ptr %18, align 8, !tbaa !116
  call void @enterExecutionUnit(i32 noundef 1, i64 noundef 0) #35
  %62 = load ptr, ptr %15, align 8, !tbaa !95
  %63 = call i32 @selectDb(ptr noundef %62, i32 noundef %3) #35
  %64 = load i32, ptr %27, align 4, !tbaa !495
  store i32 1, ptr %27, align 4, !tbaa !495
  %65 = load i32, ptr getelementptr inbounds nuw (i8, ptr @server, i64 6312), align 8, !tbaa !504
  %66 = add nsw i32 %65, 1
  store i32 %66, ptr getelementptr inbounds nuw (i8, ptr @server, i64 6312), align 8, !tbaa !504
  %67 = getelementptr inbounds nuw i8, ptr %22, i64 8
  %68 = load ptr, ptr %67, align 8, !tbaa !494
  %69 = call i32 %68(ptr noundef nonnull %6, i32 noundef %13, ptr noundef %1, ptr noundef %2) #35
  %70 = load i32, ptr getelementptr inbounds nuw (i8, ptr @server, i64 6312), align 8, !tbaa !504
  %71 = add nsw i32 %70, -1
  store i32 %71, ptr getelementptr inbounds nuw (i8, ptr @server, i64 6312), align 8, !tbaa !504
  store i32 %64, ptr %27, align 4, !tbaa !495
  call void @moduleFreeContext(ptr noundef nonnull %6)
  call void @llvm.lifetime.end.p0(i64 120, ptr nonnull %6) #35
  br label %72

72:                                               ; preds = %moduleCreateContext.exit, %30, %19
  %73 = call ptr @listNext(ptr noundef nonnull %5) #35
  %.not = icmp eq ptr %73, null
  br i1 %.not, label %._crit_edge, label %19, !llvm.loop !505

._crit_edge:                                      ; preds = %72, %11
  call void @exitExecutionUnit() #35
  call void @llvm.lifetime.end.p0(i64 16, ptr nonnull %5) #35
  br label %74

74:                                               ; preds = %4, %._crit_edge
  ret void
}